target datalayout = "e-m:e-p270:32:32-p271:32:32-p272:64:64-i64:64-i128:128-f80:128-n8:16:32:64-S128"
target triple = "x86_64-pc-linux-gnu"

%struct.nstime_t = type { i64, i32 }
%struct._packet_info = type { ptr, ptr, i32, i32, %struct.nstime_t, %struct.nstime_t, %struct.nstime_t, i8, ptr, ptr, ptr, ptr, %struct._address, %struct._address, %struct._address, %struct._address, %struct._address, %struct._address, i32, ptr, i8, [3 x i8], %struct.anon, i32, i32, i32, i32, ptr, i8, ptr, ptr, i16, i16, i32, i32, i16, i32, i32, ptr, ptr, ptr, i8, i8, i16, i16, i16, i32, i16, i16, ptr, ptr, ptr, ptr, ptr, i32, i32 }
%struct._address = type { i32, i32, ptr, ptr }
%struct.anon = type { i8, [3 x i8] }
%struct.rlc_lte_info = type { i8, i8, i8, i8, i16, i16, i16, i16, i8, i32 }

@global_mac_lte_layer_to_show = internal global i32 2, align 4
@rlc_lte_handle = internal global ptr null, align 8
@s_number_of_rlc_pdus_shown = internal global i8 0, align 1
@.str.1504 = private unnamed_addr constant [3 x i8] c"%s\00", align 1
@proto_rlc_lte = external global i32, align 4
@.str.1602 = private unnamed_addr constant [9 x i8] c"   ||   \00", align 1

; Function Attrs: null_pointer_is_valid sspstrong uwtable
define internal void @write_pdu_label_and_info_literal(ptr noundef %0, ptr noundef %1, ptr noundef %2, ptr noundef %3) #0 {
  %5 = alloca ptr, align 8
  %6 = alloca ptr, align 8
  %7 = alloca ptr, align 8
  %8 = alloca ptr, align 8
  store ptr %0, ptr %5, align 8
  store ptr %1, ptr %6, align 8
  store ptr %2, ptr %7, align 8
  store ptr %3, ptr %8, align 8
  %9 = load ptr, ptr %5, align 8
  %10 = icmp eq ptr %9, null
  br i1 %10, label %11, label %18

11:                                               ; preds = %4
  %12 = load ptr, ptr %6, align 8
  %13 = icmp eq ptr %12, null
  br i1 %13, label %14, label %18

14:                                               ; preds = %11
  %15 = load ptr, ptr %7, align 8
  %16 = icmp eq ptr %15, null
  br i1 %16, label %17, label %18

17:                                               ; preds = %14
  br label %38

18:                                               ; preds = %14, %11, %4
  %19 = load ptr, ptr %7, align 8
  %20 = icmp ne ptr %19, null
  br i1 %20, label %21, label %26

21:                                               ; preds = %18
  %22 = load ptr, ptr %7, align 8
  %23 = getelementptr inbounds nuw %struct._packet_info, ptr %22, i32 0, i32 1
  %24 = load ptr, ptr %23, align 8
  %25 = load ptr, ptr %8, align 8
  call void @col_append_str(ptr noundef %24, i32 noundef 25, ptr noundef %25)
  br label %26

26:                                               ; preds = %21, %18
  %27 = load ptr, ptr %5, align 8
  %28 = icmp ne ptr %27, null
  br i1 %28, label %29, label %32

29:                                               ; preds = %26
  %30 = load ptr, ptr %5, align 8
  %31 = load ptr, ptr %8, align 8
  call void (ptr, ptr, ...) @proto_item_append_text(ptr noundef %30, ptr noundef @.str.1504, ptr noundef %31)
  br label %32

32:                                               ; preds = %29, %26
  %33 = load ptr, ptr %6, align 8
  %34 = icmp ne ptr %33, null
  br i1 %34, label %35, label %38

35:                                               ; preds = %32
  %36 = load ptr, ptr %6, align 8
  %37 = load ptr, ptr %8, align 8
  call void (ptr, ptr, ...) @proto_item_append_text(ptr noundef %36, ptr noundef @.str.1504, ptr noundef %37)
  br label %38

38:                                               ; preds = %17, %35, %32
  ret void
}

; Function Attrs: null_pointer_is_valid sspstrong uwtable
define internal void @call_rlc_dissector(ptr noundef %0, ptr noundef %1, ptr noundef %2, ptr noundef %3, i32 noundef %4, i16 noundef zeroext %5, i8 noundef zeroext %6, i8 noundef zeroext %7, i16 noundef zeroext %8, i16 noundef zeroext %9, i16 noundef zeroext %10, i8 noundef zeroext %11, i8 noundef zeroext %12, i1 noundef zeroext %13, i32 noundef %14) #0 {
  %16 = alloca ptr, align 8
  %17 = alloca ptr, align 8
  %18 = alloca ptr, align 8
  %19 = alloca ptr, align 8
  %20 = alloca i32, align 4
  %21 = alloca i16, align 2
  %22 = alloca i8, align 1
  %23 = alloca i8, align 1
  %24 = alloca i16, align 2
  %25 = alloca i16, align 2
  %26 = alloca i16, align 2
  %27 = alloca i8, align 1
  %28 = alloca i8, align 1
  %29 = alloca i8, align 1
  %30 = alloca i32, align 4
  %31 = alloca ptr, align 8
  %32 = alloca ptr, align 8
  store ptr %0, ptr %16, align 8
  store ptr %1, ptr %17, align 8
  store ptr %2, ptr %18, align 8
  store ptr %3, ptr %19, align 8
  store i32 %4, ptr %20, align 4
  store i16 %5, ptr %21, align 2
  store i8 %6, ptr %22, align 1
  store i8 %7, ptr %23, align 1
  store i16 %8, ptr %24, align 2
  store i16 %9, ptr %25, align 2
  store i16 %10, ptr %26, align 2
  store i8 %11, ptr %27, align 1
  store i8 %12, ptr %28, align 1
  %33 = zext i1 %13 to i8
  store i8 %33, ptr %29, align 1
  store i32 %14, ptr %30, align 4
  call void @llvm.lifetime.start.p0(i64 8, ptr %31) #16
  %34 = load ptr, ptr %16, align 8
  %35 = load i32, ptr %20, align 4
  %36 = load i16, ptr %21, align 2
  %37 = zext i16 %36 to i32
  %38 = call ptr @tvb_new_subset_length(ptr noundef %34, i32 noundef %35, i32 noundef %37)
  store ptr %38, ptr %31, align 8
  call void @llvm.lifetime.start.p0(i64 8, ptr %32) #16
  %39 = call ptr @wmem_file_scope()
  %40 = load ptr, ptr %17, align 8
  %41 = load i32, ptr @proto_rlc_lte, align 4
  %42 = call ptr @p_get_proto_data(ptr noundef %39, ptr noundef %40, i32 noundef %41, i32 noundef 0)
  store ptr %42, ptr %32, align 8
  %43 = load ptr, ptr %32, align 8
  %44 = icmp eq ptr %43, null
  br i1 %44, label %45, label %48

45:                                               ; preds = %15
  %46 = call ptr @wmem_file_scope()
  %47 = call noalias ptr @wmem_alloc0(ptr noundef %46, i64 noundef 20) #17
  store ptr %47, ptr %32, align 8
  br label %48

48:                                               ; preds = %45, %15
  %49 = load i8, ptr %22, align 1
  %50 = load ptr, ptr %32, align 8
  %51 = getelementptr inbounds nuw %struct.rlc_lte_info, ptr %50, i32 0, i32 0
  store i8 %49, ptr %51, align 4
  %52 = load i8, ptr %23, align 1
  %53 = load ptr, ptr %32, align 8
  %54 = getelementptr inbounds nuw %struct.rlc_lte_info, ptr %53, i32 0, i32 1
  store i8 %52, ptr %54, align 1
  %55 = load i8, ptr %28, align 1
  %56 = load ptr, ptr %32, align 8
  %57 = getelementptr inbounds nuw %struct.rlc_lte_info, ptr %56, i32 0, i32 2
  store i8 %55, ptr %57, align 2
  %58 = load i16, ptr %24, align 2
  %59 = load ptr, ptr %32, align 8
  %60 = getelementptr inbounds nuw %struct.rlc_lte_info, ptr %59, i32 0, i32 4
  store i16 %58, ptr %60, align 4
  %61 = load i16, ptr %25, align 2
  %62 = load ptr, ptr %32, align 8
  %63 = getelementptr inbounds nuw %struct.rlc_lte_info, ptr %62, i32 0, i32 5
  store i16 %61, ptr %63, align 2
  %64 = load i16, ptr %26, align 2
  %65 = load ptr, ptr %32, align 8
  %66 = getelementptr inbounds nuw %struct.rlc_lte_info, ptr %65, i32 0, i32 6
  store i16 %64, ptr %66, align 4
  %67 = load i16, ptr %21, align 2
  %68 = load ptr, ptr %32, align 8
  %69 = getelementptr inbounds nuw %struct.rlc_lte_info, ptr %68, i32 0, i32 7
  store i16 %67, ptr %69, align 2
  %70 = load i8, ptr %27, align 1
  %71 = load ptr, ptr %32, align 8
  %72 = getelementptr inbounds nuw %struct.rlc_lte_info, ptr %71, i32 0, i32 3
  store i8 %70, ptr %72, align 1
  %73 = load i8, ptr %29, align 1, !range !9, !noundef !10
  %74 = trunc i8 %73 to i1
  %75 = load ptr, ptr %32, align 8
  %76 = getelementptr inbounds nuw %struct.rlc_lte_info, ptr %75, i32 0, i32 8
  %77 = zext i1 %74 to i8
  store i8 %77, ptr %76, align 4
  %78 = load i32, ptr %30, align 4
  %79 = icmp eq i32 %78, 1
  br i1 %79, label %80, label %83

80:                                               ; preds = %48
  %81 = load ptr, ptr %32, align 8
  %82 = getelementptr inbounds nuw %struct.rlc_lte_info, ptr %81, i32 0, i32 9
  store i32 1, ptr %82, align 4
  br label %86

83:                                               ; preds = %48
  %84 = load ptr, ptr %32, align 8
  %85 = getelementptr inbounds nuw %struct.rlc_lte_info, ptr %84, i32 0, i32 9
  store i32 0, ptr %85, align 4
  br label %86

86:                                               ; preds = %83, %80
  %87 = call ptr @wmem_file_scope()
  %88 = load ptr, ptr %17, align 8
  %89 = load i32, ptr @proto_rlc_lte, align 4
  %90 = load ptr, ptr %32, align 8
  call void @p_add_proto_data(ptr noundef %87, ptr noundef %88, i32 noundef %89, i32 noundef 0, ptr noundef %90)
  %91 = load i32, ptr @global_mac_lte_layer_to_show, align 4
  %92 = icmp ne i32 %91, 2
  br i1 %92, label %93, label %97

93:                                               ; preds = %86
  %94 = load ptr, ptr %17, align 8
  %95 = getelementptr inbounds nuw %struct._packet_info, ptr %94, i32 0, i32 1
  %96 = load ptr, ptr %95, align 8
  call void @col_set_writable(ptr noundef %96, i32 noundef -1, i1 noundef zeroext false)
  br label %112

97:                                               ; preds = %86
  %98 = load i8, ptr @s_number_of_rlc_pdus_shown, align 1
  %99 = zext i8 %98 to i32
  %100 = icmp eq i32 %99, 0
  br i1 %100, label %101, label %105

101:                                              ; preds = %97
  %102 = load ptr, ptr %17, align 8
  %103 = getelementptr inbounds nuw %struct._packet_info, ptr %102, i32 0, i32 1
  %104 = load ptr, ptr %103, align 8
  call void @col_clear(ptr noundef %104, i32 noundef 25)
  br label %111

105:                                              ; preds = %97
  %106 = load ptr, ptr %19, align 8
  %107 = load ptr, ptr %17, align 8
  call void @write_pdu_label_and_info_literal(ptr noundef %106, ptr noundef null, ptr noundef %107, ptr noundef @.str.1602)
  %108 = load ptr, ptr %17, align 8
  %109 = getelementptr inbounds nuw %struct._packet_info, ptr %108, i32 0, i32 1
  %110 = load ptr, ptr %109, align 8
  call void @col_set_fence(ptr noundef %110, i32 noundef 25)
  br label %111

111:                                              ; preds = %105, %101
  br label %112

112:                                              ; preds = %111, %93
  %113 = load i8, ptr @s_number_of_rlc_pdus_shown, align 1
  %114 = add i8 %113, 1
  store i8 %114, ptr @s_number_of_rlc_pdus_shown, align 1
  %115 = load ptr, ptr @rlc_lte_handle, align 8
  %116 = load ptr, ptr %31, align 8
  %117 = load ptr, ptr %17, align 8
  %118 = load ptr, ptr %18, align 8
  call void @call_with_catch_all(ptr noundef %115, ptr noundef %116, ptr noundef %117, ptr noundef %118)
  %119 = load ptr, ptr %17, align 8
  %120 = getelementptr inbounds nuw %struct._packet_info, ptr %119, i32 0, i32 1
  %121 = load ptr, ptr %120, align 8
  call void @col_set_writable(ptr noundef %121, i32 noundef -1, i1 noundef zeroext true)
  call void @llvm.lifetime.end.p0(i64 8, ptr %32) #16
  call void @llvm.lifetime.end.p0(i64 8, ptr %31) #16
  ret void
}