; Function Attrs: null_pointer_is_valid sspstrong uwtable
define internal fastcc void @call_rlc_dissector(ptr noundef %0, ptr noundef %1, ptr noundef %2, ptr noundef %3, i32 noundef %4, i16 noundef zeroext %5, i8 noundef zeroext range(i8 1, 5) %6, i8 noundef zeroext %7, i16 noundef zeroext %8, i16 noundef zeroext range(i16 4, 9) %9, i16 noundef zeroext %10, i8 noundef zeroext %11, i8 noundef zeroext %12, i1 noundef zeroext %13, i32 noundef %14) unnamed_addr #0 {
  %16 = zext i1 %13 to i8
  %17 = zext i16 %5 to i32
  %18 = tail call ptr @tvb_new_subset_length(ptr noundef %0, i32 noundef %4, i32 noundef %17)
  %19 = tail call ptr @wmem_file_scope()
  %20 = load i32, ptr @proto_rlc_lte, align 4
  %21 = tail call ptr @p_get_proto_data(ptr noundef %19, ptr noundef %1, i32 noundef %20, i32 noundef 0)
  %22 = icmp eq ptr %21, null
  br i1 %22, label %23, label %26

23:                                               ; preds = %15
  %24 = tail call ptr @wmem_file_scope()
  %25 = tail call noalias dereferenceable_or_null(20) ptr @wmem_alloc0(ptr noundef %24, i64 noundef 20) #17
  br label %26

26:                                               ; preds = %23, %15
  %.0 = phi ptr [ %25, %23 ], [ %21, %15 ]
  store i8 %6, ptr %.0, align 4
  %27 = getelementptr inbounds nuw i8, ptr %.0, i64 1
  store i8 %7, ptr %27, align 1
  %28 = getelementptr inbounds nuw i8, ptr %.0, i64 2
  store i8 %12, ptr %28, align 2
  %29 = getelementptr inbounds nuw i8, ptr %.0, i64 4
  store i16 %8, ptr %29, align 4
  %30 = getelementptr inbounds nuw i8, ptr %.0, i64 6
  store i16 %9, ptr %30, align 2
  %31 = getelementptr inbounds nuw i8, ptr %.0, i64 8
  store i16 %10, ptr %31, align 4
  %32 = getelementptr inbounds nuw i8, ptr %.0, i64 10
  store i16 %5, ptr %32, align 2
  %33 = getelementptr inbounds nuw i8, ptr %.0, i64 3
  store i8 %11, ptr %33, align 1
  %34 = getelementptr inbounds nuw i8, ptr %.0, i64 12
  store i8 %16, ptr %34, align 4
  %35 = icmp eq i32 %14, 1
  %spec.select = zext i1 %35 to i32
  %36 = getelementptr inbounds nuw i8, ptr %.0, i64 16
  store i32 %spec.select, ptr %36, align 4
  %37 = tail call ptr @wmem_file_scope()
  %38 = load i32, ptr @proto_rlc_lte, align 4
  tail call void @p_add_proto_data(ptr noundef %37, ptr noundef %1, i32 noundef %38, i32 noundef 0, ptr noundef %.0)
  %39 = load i32, ptr @global_mac_lte_layer_to_show, align 4
  %.not = icmp eq i32 %39, 2
  br i1 %.not, label %43, label %40

40:                                               ; preds = %26
  %41 = getelementptr inbounds nuw i8, ptr %1, i64 8
  %42 = load ptr, ptr %41, align 8
  tail call void @col_set_writable(ptr noundef %42, i32 noundef -1, i1 noundef zeroext false)
  br label %60

43:                                               ; preds = %26
  %44 = load i8, ptr @s_number_of_rlc_pdus_shown, align 1
  %45 = icmp eq i8 %44, 0
  br i1 %45, label %46, label %49

46:                                               ; preds = %43
  %47 = getelementptr inbounds nuw i8, ptr %1, i64 8
  %48 = load ptr, ptr %47, align 8
  tail call void @col_clear(ptr noundef %48, i32 noundef 25)
  br label %60

49:                                               ; preds = %43
  %50 = icmp eq ptr %3, null
  %51 = icmp eq ptr %1, null
  %or.cond3.i = and i1 %51, %50
  br i1 %or.cond3.i, label %write_pdu_label_and_info_literal.exit, label %52

52:                                               ; preds = %49
  br i1 %51, label %56, label %53

53:                                               ; preds = %52
  %54 = getelementptr inbounds nuw i8, ptr %1, i64 8
  %55 = load ptr, ptr %54, align 8
  tail call void @col_append_str(ptr noundef %55, i32 noundef 25, ptr noundef nonnull @.str.1602)
  br label %56

56:                                               ; preds = %53, %52
  br i1 %50, label %write_pdu_label_and_info_literal.exit, label %57

57:                                               ; preds = %56
  tail call void (ptr, ptr, ...) @proto_item_append_text(ptr noundef nonnull %3, ptr noundef nonnull @.str.1504, ptr noundef nonnull @.str.1602)
  br label %write_pdu_label_and_info_literal.exit

write_pdu_label_and_info_literal.exit:            ; preds = %49, %56, %57
  %58 = getelementptr inbounds nuw i8, ptr %1, i64 8
  %59 = load ptr, ptr %58, align 8
  tail call void @col_set_fence(ptr noundef %59, i32 noundef 25)
  br label %60

60:                                               ; preds = %46, %write_pdu_label_and_info_literal.exit, %40
  %61 = load i8, ptr @s_number_of_rlc_pdus_shown, align 1
  %62 = add i8 %61, 1
  store i8 %62, ptr @s_number_of_rlc_pdus_shown, align 1
  %63 = load ptr, ptr @rlc_lte_handle, align 8
  tail call fastcc void @call_with_catch_all(ptr noundef %63, ptr noundef %18, ptr noundef %1, ptr noundef %2)
  %64 = getelementptr inbounds nuw i8, ptr %1, i64 8
  %65 = load ptr, ptr %64, align 8
  tail call void @col_set_writable(ptr noundef %65, i32 noundef -1, i1 noundef zeroext true)
  ret void
}